; Function Attrs: mustprogress uwtable
define void @_ZN6colvar7dihedPC10calc_valueEv(ptr noundef nonnull align 8 captures(none) dereferenceable(1656) initializes((600, 608)) %0) unnamed_addr #2 align 2 {
  %2 = getelementptr inbounds nuw i8, ptr %0, i64 600
  store double 0.000000e+00, ptr %2, align 8, !tbaa !168
  %3 = getelementptr inbounds nuw i8, ptr %0, i64 1608
  %4 = getelementptr inbounds nuw i8, ptr %0, i64 1616
  %5 = load ptr, ptr %4, align 8, !tbaa !259
  %6 = load ptr, ptr %3, align 8, !tbaa !265
  %.not = icmp eq ptr %5, %6
  br i1 %.not, label %._crit_edge, label %.lr.ph

.lr.ph:                                           ; preds = %1
  %7 = getelementptr inbounds nuw i8, ptr %0, i64 1632
  br label %8

._crit_edge:                                      ; preds = %8, %1
  ret void

8:                                                ; preds = %.lr.ph, %8
  %9 = phi ptr [ %6, %.lr.ph ], [ %15, %8 ]
  %.07 = phi i64 [ 0, %.lr.ph ], [ %34, %8 ]
  %10 = getelementptr inbounds nuw ptr, ptr %9, i64 %.07
  %11 = load ptr, ptr %10, align 8, !tbaa !263
  %12 = load ptr, ptr %11, align 8, !tbaa !14
  %13 = getelementptr inbounds nuw i8, ptr %12, i64 112
  %14 = load ptr, ptr %13, align 8
  tail call void %14(ptr noundef nonnull align 8 dereferenceable(1713) %11)
  %15 = load ptr, ptr %3, align 8, !tbaa !265
  %16 = getelementptr inbounds nuw ptr, ptr %15, i64 %.07
  %17 = load ptr, ptr %16, align 8, !tbaa !263
  %18 = getelementptr inbounds nuw i8, ptr %17, i64 600
  %19 = load double, ptr %18, align 8, !tbaa !169
  %20 = fmul double %19, 0x3F91DF46A2529D39
  %21 = shl i64 %.07, 1
  %22 = load ptr, ptr %7, align 8, !tbaa !201
  %23 = getelementptr inbounds nuw double, ptr %22, i64 %21
  %24 = load double, ptr %23, align 8, !tbaa !178
  %25 = tail call noundef double @cos(double noundef %20) #22, !tbaa !26
  %26 = or disjoint i64 %21, 1
  %27 = getelementptr inbounds nuw double, ptr %22, i64 %26
  %28 = load double, ptr %27, align 8, !tbaa !178
  %29 = tail call noundef double @sin(double noundef %20) #22, !tbaa !26
  %30 = fmul double %28, %29
  %31 = tail call double @llvm.fmuladd.f64(double %24, double %25, double %30)
  %32 = load double, ptr %2, align 8, !tbaa !168
  %33 = fadd double %32, %31
  store double %33, ptr %2, align 8, !tbaa !168
  %34 = add nuw i64 %.07, 1
  %35 = load ptr, ptr %4, align 8, !tbaa !259
  %36 = ptrtoint ptr %35 to i64
  %37 = ptrtoint ptr %15 to i64
  %38 = sub i64 %36, %37
  %39 = ashr exact i64 %38, 3
  %40 = icmp ult i64 %34, %39
  br i1 %40, label %8, label %._crit_edge, !llvm.loop !268
}